; ModuleID = '17/1462.c'
source_filename = "17/1462.c"
target datalayout = "e-m:e-p270:32:32-p271:32:32-p272:64:64-i64:64-f80:128-n8:16:32:64-S128"
target triple = "x86_64-pc-linux-gnu"

@.str = private unnamed_addr constant [3 x i8] c"%d\00", align 1
@.str.1 = private unnamed_addr constant [3 x i8] c"%c\00", align 1
@.str.2 = private unnamed_addr constant [2 x i8] c"\0A\00", align 1

; Function Attrs: noinline nounwind uwtable
define dso_local i32 @main() #0 {
  %1 = alloca i32, align 4
  %2 = alloca i32, align 4
  %3 = alloca i32, align 4
  %4 = alloca i32, align 4
  %5 = alloca i32, align 4
  %6 = alloca i32, align 4
  %7 = alloca i32, align 4
  %8 = alloca i8*, align 8
  %9 = alloca i64, align 8
  store i32 0, i32* %1, align 4
  store i32 0, i32* %5, align 4
  %10 = call i32 (i8*, ...) @__isoc99_scanf(i8* getelementptr inbounds ([3 x i8], [3 x i8]* @.str, i64 0, i64 0), i32* %2)
  %11 = load i32, i32* %2, align 4
  %12 = zext i32 %11 to i64
  %13 = call i8* @llvm.stacksave()
  store i8* %13, i8** %8, align 8
  %14 = alloca [1000 x i8], i64 %12, align 16
  store i64 %12, i64* %9, align 8
  %15 = call i32 @getchar()
  store i32 0, i32* %3, align 4
  br label %16

16:                                               ; preds = %26, %0
  %17 = load i32, i32* %3, align 4
  %18 = load i32, i32* %2, align 4
  %19 = icmp slt i32 %17, %18
  br i1 %19, label %20, label %29

20:                                               ; preds = %16
  %21 = load i32, i32* %3, align 4
  %22 = sext i32 %21 to i64
  %23 = getelementptr inbounds [1000 x i8], [1000 x i8]* %14, i64 %22
  %24 = getelementptr inbounds [1000 x i8], [1000 x i8]* %23, i64 0, i64 0
  %25 = call i32 (i8*, ...) bitcast (i32 (...)* @gets to i32 (i8*, ...)*)(i8* %24)
  br label %26

26:                                               ; preds = %20
  %27 = load i32, i32* %3, align 4
  %28 = add nsw i32 %27, 1
  store i32 %28, i32* %3, align 4
  br label %16

29:                                               ; preds = %16
  store i32 0, i32* %3, align 4
  br label %30

30:                                               ; preds = %270, %29
  %31 = load i32, i32* %3, align 4
  %32 = load i32, i32* %2, align 4
  %33 = icmp slt i32 %31, %32
  br i1 %33, label %34, label %273

34:                                               ; preds = %30
  store i32 0, i32* %4, align 4
  br label %35

35:                                               ; preds = %55, %34
  %36 = load i32, i32* %3, align 4
  %37 = sext i32 %36 to i64
  %38 = getelementptr inbounds [1000 x i8], [1000 x i8]* %14, i64 %37
  %39 = load i32, i32* %4, align 4
  %40 = sext i32 %39 to i64
  %41 = getelementptr inbounds [1000 x i8], [1000 x i8]* %38, i64 0, i64 %40
  %42 = load i8, i8* %41, align 1
  %43 = sext i8 %42 to i32
  %44 = icmp ne i32 %43, 0
  br i1 %44, label %45, label %58

45:                                               ; preds = %35
  %46 = load i32, i32* %3, align 4
  %47 = sext i32 %46 to i64
  %48 = getelementptr inbounds [1000 x i8], [1000 x i8]* %14, i64 %47
  %49 = load i32, i32* %4, align 4
  %50 = sext i32 %49 to i64
  %51 = getelementptr inbounds [1000 x i8], [1000 x i8]* %48, i64 0, i64 %50
  %52 = load i8, i8* %51, align 1
  %53 = sext i8 %52 to i32
  %54 = call i32 (i8*, ...) @printf(i8* getelementptr inbounds ([3 x i8], [3 x i8]* @.str.1, i64 0, i64 0), i32 %53)
  br label %55

55:                                               ; preds = %45
  %56 = load i32, i32* %4, align 4
  %57 = add nsw i32 %56, 1
  store i32 %57, i32* %4, align 4
  br label %35

58:                                               ; preds = %35
  %59 = call i32 (i8*, ...) @printf(i8* getelementptr inbounds ([2 x i8], [2 x i8]* @.str.2, i64 0, i64 0))
  %60 = load i32, i32* %4, align 4
  store i32 %60, i32* %6, align 4
  store i32 0, i32* %4, align 4
  br label %61

61:                                               ; preds = %168, %58
  %62 = load i32, i32* %4, align 4
  %63 = load i32, i32* %6, align 4
  %64 = icmp slt i32 %62, %63
  br i1 %64, label %65, label %171

65:                                               ; preds = %61
  %66 = load i32, i32* %3, align 4
  %67 = sext i32 %66 to i64
  %68 = getelementptr inbounds [1000 x i8], [1000 x i8]* %14, i64 %67
  %69 = load i32, i32* %4, align 4
  %70 = sext i32 %69 to i64
  %71 = getelementptr inbounds [1000 x i8], [1000 x i8]* %68, i64 0, i64 %70
  %72 = load i8, i8* %71, align 1
  %73 = sext i8 %72 to i32
  %74 = icmp eq i32 %73, 41
  br i1 %74, label %75, label %130

75:                                               ; preds = %65
  %76 = load i32, i32* %4, align 4
  %77 = icmp eq i32 %76, 0
  br i1 %77, label %78, label %85

78:                                               ; preds = %75
  %79 = load i32, i32* %3, align 4
  %80 = sext i32 %79 to i64
  %81 = getelementptr inbounds [1000 x i8], [1000 x i8]* %14, i64 %80
  %82 = load i32, i32* %4, align 4
  %83 = sext i32 %82 to i64
  %84 = getelementptr inbounds [1000 x i8], [1000 x i8]* %81, i64 0, i64 %83
  store i8 63, i8* %84, align 1
  br label %85

85:                                               ; preds = %78, %75
  store i32 1, i32* %5, align 4
  br label %86

86:                                               ; preds = %126, %85
  %87 = load i32, i32* %4, align 4
  %88 = load i32, i32* %5, align 4
  %89 = sub nsw i32 %87, %88
  %90 = icmp sge i32 %89, 0
  br i1 %90, label %91, label %129

91:                                               ; preds = %86
  %92 = load i32, i32* %3, align 4
  %93 = sext i32 %92 to i64
  %94 = getelementptr inbounds [1000 x i8], [1000 x i8]* %14, i64 %93
  %95 = load i32, i32* %4, align 4
  %96 = load i32, i32* %5, align 4
  %97 = sub nsw i32 %95, %96
  %98 = sext i32 %97 to i64
  %99 = getelementptr inbounds [1000 x i8], [1000 x i8]* %94, i64 0, i64 %98
  %100 = load i8, i8* %99, align 1
  %101 = sext i8 %100 to i32
  %102 = icmp eq i32 %101, 40
  br i1 %102, label %103, label %118

103:                                              ; preds = %91
  %104 = load i32, i32* %3, align 4
  %105 = sext i32 %104 to i64
  %106 = getelementptr inbounds [1000 x i8], [1000 x i8]* %14, i64 %105
  %107 = load i32, i32* %4, align 4
  %108 = load i32, i32* %5, align 4
  %109 = sub nsw i32 %107, %108
  %110 = sext i32 %109 to i64
  %111 = getelementptr inbounds [1000 x i8], [1000 x i8]* %106, i64 0, i64 %110
  store i8 32, i8* %111, align 1
  %112 = load i32, i32* %3, align 4
  %113 = sext i32 %112 to i64
  %114 = getelementptr inbounds [1000 x i8], [1000 x i8]* %14, i64 %113
  %115 = load i32, i32* %4, align 4
  %116 = sext i32 %115 to i64
  %117 = getelementptr inbounds [1000 x i8], [1000 x i8]* %114, i64 0, i64 %116
  store i8 32, i8* %117, align 1
  br label %129

118:                                              ; preds = %91
  %119 = load i32, i32* %3, align 4
  %120 = sext i32 %119 to i64
  %121 = getelementptr inbounds [1000 x i8], [1000 x i8]* %14, i64 %120
  %122 = load i32, i32* %4, align 4
  %123 = sext i32 %122 to i64
  %124 = getelementptr inbounds [1000 x i8], [1000 x i8]* %121, i64 0, i64 %123
  store i8 63, i8* %124, align 1
  br label %125

125:                                              ; preds = %118
  br label %126

126:                                              ; preds = %125
  %127 = load i32, i32* %5, align 4
  %128 = add nsw i32 %127, 1
  store i32 %128, i32* %5, align 4
  br label %86

129:                                              ; preds = %103, %86
  br label %130

130:                                              ; preds = %129, %65
  %131 = load i32, i32* %3, align 4
  %132 = sext i32 %131 to i64
  %133 = getelementptr inbounds [1000 x i8], [1000 x i8]* %14, i64 %132
  %134 = load i32, i32* %4, align 4
  %135 = sext i32 %134 to i64
  %136 = getelementptr inbounds [1000 x i8], [1000 x i8]* %133, i64 0, i64 %135
  %137 = load i8, i8* %136, align 1
  %138 = sext i8 %137 to i32
  %139 = icmp ne i32 %138, 40
  br i1 %139, label %140, label %167

140:                                              ; preds = %130
  %141 = load i32, i32* %3, align 4
  %142 = sext i32 %141 to i64
  %143 = getelementptr inbounds [1000 x i8], [1000 x i8]* %14, i64 %142
  %144 = load i32, i32* %4, align 4
  %145 = sext i32 %144 to i64
  %146 = getelementptr inbounds [1000 x i8], [1000 x i8]* %143, i64 0, i64 %145
  %147 = load i8, i8* %146, align 1
  %148 = sext i8 %147 to i32
  %149 = icmp ne i32 %148, 41
  br i1 %149, label %150, label %167

150:                                              ; preds = %140
  %151 = load i32, i32* %3, align 4
  %152 = sext i32 %151 to i64
  %153 = getelementptr inbounds [1000 x i8], [1000 x i8]* %14, i64 %152
  %154 = load i32, i32* %4, align 4
  %155 = sext i32 %154 to i64
  %156 = getelementptr inbounds [1000 x i8], [1000 x i8]* %153, i64 0, i64 %155
  %157 = load i8, i8* %156, align 1
  %158 = sext i8 %157 to i32
  %159 = icmp ne i32 %158, 63
  br i1 %159, label %160, label %167

160:                                              ; preds = %150
  %161 = load i32, i32* %3, align 4
  %162 = sext i32 %161 to i64
  %163 = getelementptr inbounds [1000 x i8], [1000 x i8]* %14, i64 %162
  %164 = load i32, i32* %4, align 4
  %165 = sext i32 %164 to i64
  %166 = getelementptr inbounds [1000 x i8], [1000 x i8]* %163, i64 0, i64 %165
  store i8 32, i8* %166, align 1
  br label %167

167:                                              ; preds = %160, %150, %140, %130
  br label %168

168:                                              ; preds = %167
  %169 = load i32, i32* %4, align 4
  %170 = add nsw i32 %169, 1
  store i32 %170, i32* %4, align 4
  br label %61

171:                                              ; preds = %61
  %172 = load i32, i32* %6, align 4
  %173 = sub nsw i32 %172, 1
  store i32 %173, i32* %4, align 4
  br label %174

174:                                              ; preds = %247, %171
  %175 = load i32, i32* %4, align 4
  %176 = icmp sge i32 %175, 0
  br i1 %176, label %177, label %250

177:                                              ; preds = %174
  %178 = load i32, i32* %3, align 4
  %179 = sext i32 %178 to i64
  %180 = getelementptr inbounds [1000 x i8], [1000 x i8]* %14, i64 %179
  %181 = load i32, i32* %4, align 4
  %182 = sext i32 %181 to i64
  %183 = getelementptr inbounds [1000 x i8], [1000 x i8]* %180, i64 0, i64 %182
  %184 = load i8, i8* %183, align 1
  %185 = sext i8 %184 to i32
  %186 = icmp eq i32 %185, 40
  br i1 %186, label %187, label %246

187:                                              ; preds = %177
  %188 = load i32, i32* %4, align 4
  %189 = load i32, i32* %6, align 4
  %190 = sub nsw i32 %189, 1
  %191 = icmp eq i32 %188, %190
  br i1 %191, label %192, label %199

192:                                              ; preds = %187
  %193 = load i32, i32* %3, align 4
  %194 = sext i32 %193 to i64
  %195 = getelementptr inbounds [1000 x i8], [1000 x i8]* %14, i64 %194
  %196 = load i32, i32* %4, align 4
  %197 = sext i32 %196 to i64
  %198 = getelementptr inbounds [1000 x i8], [1000 x i8]* %195, i64 0, i64 %197
  store i8 36, i8* %198, align 1
  br label %245

199:                                              ; preds = %187
  store i32 1, i32* %5, align 4
  br label %200

200:                                              ; preds = %241, %199
  %201 = load i32, i32* %4, align 4
  %202 = load i32, i32* %5, align 4
  %203 = add nsw i32 %201, %202
  %204 = load i32, i32* %6, align 4
  %205 = icmp slt i32 %203, %204
  br i1 %205, label %206, label %244

206:                                              ; preds = %200
  %207 = load i32, i32* %3, align 4
  %208 = sext i32 %207 to i64
  %209 = getelementptr inbounds [1000 x i8], [1000 x i8]* %14, i64 %208
  %210 = load i32, i32* %4, align 4
  %211 = load i32, i32* %5, align 4
  %212 = add nsw i32 %210, %211
  %213 = sext i32 %212 to i64
  %214 = getelementptr inbounds [1000 x i8], [1000 x i8]* %209, i64 0, i64 %213
  %215 = load i8, i8* %214, align 1
  %216 = sext i8 %215 to i32
  %217 = icmp eq i32 %216, 41
  br i1 %217, label %218, label %233

218:                                              ; preds = %206
  %219 = load i32, i32* %3, align 4
  %220 = sext i32 %219 to i64
  %221 = getelementptr inbounds [1000 x i8], [1000 x i8]* %14, i64 %220
  %222 = load i32, i32* %4, align 4
  %223 = sext i32 %222 to i64
  %224 = getelementptr inbounds [1000 x i8], [1000 x i8]* %221, i64 0, i64 %223
  store i8 32, i8* %224, align 1
  %225 = load i32, i32* %3, align 4
  %226 = sext i32 %225 to i64
  %227 = getelementptr inbounds [1000 x i8], [1000 x i8]* %14, i64 %226
  %228 = load i32, i32* %4, align 4
  %229 = load i32, i32* %5, align 4
  %230 = add nsw i32 %228, %229
  %231 = sext i32 %230 to i64
  %232 = getelementptr inbounds [1000 x i8], [1000 x i8]* %227, i64 0, i64 %231
  store i8 32, i8* %232, align 1
  br label %244

233:                                              ; preds = %206
  %234 = load i32, i32* %3, align 4
  %235 = sext i32 %234 to i64
  %236 = getelementptr inbounds [1000 x i8], [1000 x i8]* %14, i64 %235
  %237 = load i32, i32* %4, align 4
  %238 = sext i32 %237 to i64
  %239 = getelementptr inbounds [1000 x i8], [1000 x i8]* %236, i64 0, i64 %238
  store i8 36, i8* %239, align 1
  br label %240

240:                                              ; preds = %233
  br label %241

241:                                              ; preds = %240
  %242 = load i32, i32* %5, align 4
  %243 = add nsw i32 %242, 1
  store i32 %243, i32* %5, align 4
  br label %200

244:                                              ; preds = %218, %200
  br label %245

245:                                              ; preds = %244, %192
  br label %246

246:                                              ; preds = %245, %177
  br label %247

247:                                              ; preds = %246
  %248 = load i32, i32* %4, align 4
  %249 = add nsw i32 %248, -1
  store i32 %249, i32* %4, align 4
  br label %174

250:                                              ; preds = %174
  store i32 0, i32* %4, align 4
  br label %251

251:                                              ; preds = %265, %250
  %252 = load i32, i32* %4, align 4
  %253 = load i32, i32* %6, align 4
  %254 = icmp slt i32 %252, %253
  br i1 %254, label %255, label %268

255:                                              ; preds = %251
  %256 = load i32, i32* %3, align 4
  %257 = sext i32 %256 to i64
  %258 = getelementptr inbounds [1000 x i8], [1000 x i8]* %14, i64 %257
  %259 = load i32, i32* %4, align 4
  %260 = sext i32 %259 to i64
  %261 = getelementptr inbounds [1000 x i8], [1000 x i8]* %258, i64 0, i64 %260
  %262 = load i8, i8* %261, align 1
  %263 = sext i8 %262 to i32
  %264 = call i32 (i8*, ...) @printf(i8* getelementptr inbounds ([3 x i8], [3 x i8]* @.str.1, i64 0, i64 0), i32 %263)
  br label %265

265:                                              ; preds = %255
  %266 = load i32, i32* %4, align 4
  %267 = add nsw i32 %266, 1
  store i32 %267, i32* %4, align 4
  br label %251

268:                                              ; preds = %251
  %269 = call i32 (i8*, ...) @printf(i8* getelementptr inbounds ([2 x i8], [2 x i8]* @.str.2, i64 0, i64 0))
  br label %270

270:                                              ; preds = %268
  %271 = load i32, i32* %3, align 4
  %272 = add nsw i32 %271, 1
  store i32 %272, i32* %3, align 4
  br label %30

273:                                              ; preds = %30
  store i32 0, i32* %1, align 4
  %274 = load i8*, i8** %8, align 8
  call void @llvm.stackrestore(i8* %274)
  %275 = load i32, i32* %1, align 4
  ret i32 %275
}

declare dso_local i32 @__isoc99_scanf(i8*, ...) #1

; Function Attrs: nounwind
declare i8* @llvm.stacksave() #2

declare dso_local i32 @getchar() #1

declare dso_local i32 @gets(...) #1

declare dso_local i32 @printf(i8*, ...) #1

; Function Attrs: nounwind
declare void @llvm.stackrestore(i8*) #2


!llvm.module.flags = !{!0}
!llvm.ident = !{!1}

!0 = !{i32 1, !"wchar_size", i32 4}
!1 = !{!"clang version 10.0.0-4ubuntu1 "}
